target datalayout = "e-m:e-p270:32:32-p271:32:32-p272:64:64-i64:64-i128:128-f80:128-n8:16:32:64-S128"
target triple = "x86_64-unknown-linux-gnu"

%"class.icu_75::UObject" = type { ptr }
%"class.icu_75::Locale" = type <{ %"class.icu_75::UObject", [12 x i8], [6 x i8], [4 x i8], [2 x i8], i32, [4 x i8], ptr, [157 x i8], [3 x i8], ptr, i8, [7 x i8] }>
%"class.icu_75::CollationBuilder" = type { %"class.icu_75::CollationRuleParser::Sink", ptr, ptr, ptr, ptr, ptr, %"class.icu_75::CollationRootElements", i32, ptr, i8, i8, [6 x i8], %"class.icu_75::UnicodeSet", ptr, [31 x i64], i32, %"class.icu_75::UVector32", %"class.icu_75::UVector64" }
%"class.icu_75::CollationRuleParser::Sink" = type { %"class.icu_75::UObject" }
%"class.icu_75::CollationRootElements" = type <{ ptr, i32, [4 x i8] }>
%"class.icu_75::UnicodeSet" = type <{ %"class.icu_75::UnicodeFilter", ptr, i32, i32, i8, [7 x i8], ptr, ptr, i32, [4 x i8], ptr, i32, [4 x i8], ptr, ptr, [25 x i32], [4 x i8] }>
%"class.icu_75::UnicodeFilter" = type { %"class.icu_75::UnicodeFunctor", %"class.icu_75::UnicodeMatcher" }
%"class.icu_75::UnicodeFunctor" = type { %"class.icu_75::UObject" }
%"class.icu_75::UnicodeMatcher" = type { ptr }
%"class.icu_75::UVector32" = type { %"class.icu_75::UObject", i32, i32, i32, ptr }
%"class.icu_75::UVector64" = type { %"class.icu_75::UObject", i32, i32, i32, ptr }
%"class.icu_75::UnicodeString" = type { %"class.icu_75::Replaceable", %"union.icu_75::UnicodeString::StackBufferOrFields" }
%"class.icu_75::Replaceable" = type { %"class.icu_75::UObject" }
%"union.icu_75::UnicodeString::StackBufferOrFields" = type { %struct.anon.0, [32 x i8] }
%struct.anon.0 = type { i16, i32, i32, ptr }
%"struct.icu_75::CollationTailoring" = type { %"class.icu_75::SharedObject", ptr, ptr, %"class.icu_75::UnicodeString", %"class.icu_75::Locale", [4 x i8], ptr, ptr, ptr, ptr, ptr, ptr, ptr, %"struct.icu_75::UInitOnce" }
%"class.icu_75::SharedObject" = type { %"class.icu_75::UObject", i32, %"struct.std::atomic", ptr }
%"struct.std::atomic" = type { %"struct.std::__atomic_base" }
%"struct.std::__atomic_base" = type { i32 }
%"struct.icu_75::UInitOnce" = type { %"struct.std::atomic", i32 }
%"struct.icu_75::CollationData" = type <{ ptr, ptr, ptr, ptr, ptr, ptr, ptr, i32, i32, i32, i32, ptr, ptr, ptr, i32, i32, ptr, ptr, i32, [4 x i8], ptr, i32, [4 x i8] }>

@.str.1 = private unnamed_addr constant [46 x i8] c"CollationBuilder fields initialization failed\00", align 1
@.str.2 = private unnamed_addr constant [39 x i8] c"CollationBuilder initialization failed\00", align 1
@_ZTVN6icu_757UObjectE = external unnamed_addr constant { [5 x ptr] }, align 8
@_ZTVN6icu_7519CollationRuleParser4SinkE = external unnamed_addr constant { [9 x ptr] }, align 8

; Function Attrs: mustprogress nounwind uwtable
define linkonce_odr void @_ZN6icu_757UObjectC2Ev(ptr noundef nonnull align 8 dereferenceable(8) %this) unnamed_addr #3 comdat align 2 {
entry:
  %this.addr = alloca ptr, align 8
  store ptr %this, ptr %this.addr, align 8
  %this1 = load ptr, ptr %this.addr, align 8
  store ptr getelementptr inbounds ({ [5 x ptr] }, ptr @_ZTVN6icu_757UObjectE, i32 0, i32 0, i32 2), ptr %this1, align 8
  ret void
}

; Function Attrs: mustprogress nounwind uwtable
define internal noundef signext i8 @_ZL9U_FAILURE10UErrorCode(i32 noundef %code) #3 {
entry:
  %code.addr = alloca i32, align 4
  store i32 %code, ptr %code.addr, align 4
  %0 = load i32, ptr %code.addr, align 4
  %cmp = icmp sgt i32 %0, 0
  %conv = zext i1 %cmp to i8
  ret i8 %conv
}

; Function Attrs: mustprogress nounwind uwtable
define linkonce_odr void @_ZN6icu_7521CollationRootElementsC2EPKji(ptr noundef nonnull align 8 dereferenceable(12) %this, ptr noundef %rootElements, i32 noundef %rootElementsLength) unnamed_addr #3 comdat align 2 {
entry:
  %this.addr = alloca ptr, align 8
  %rootElements.addr = alloca ptr, align 8
  %rootElementsLength.addr = alloca i32, align 4
  store ptr %this, ptr %this.addr, align 8
  store ptr %rootElements, ptr %rootElements.addr, align 8
  store i32 %rootElementsLength, ptr %rootElementsLength.addr, align 4
  %this1 = load ptr, ptr %this.addr, align 8
  %elements = getelementptr inbounds %"class.icu_75::CollationRootElements", ptr %this1, i32 0, i32 0
  %0 = load ptr, ptr %rootElements.addr, align 8
  store ptr %0, ptr %elements, align 8
  %length = getelementptr inbounds %"class.icu_75::CollationRootElements", ptr %this1, i32 0, i32 1
  %1 = load i32, ptr %rootElementsLength.addr, align 4
  store i32 %1, ptr %length, align 8
  ret void
}

; Function Attrs: mustprogress nounwind uwtable
define linkonce_odr void @_ZN6icu_7519CollationRuleParser4SinkC2Ev(ptr noundef nonnull align 8 dereferenceable(8) %this) unnamed_addr #3 comdat align 2 {
entry:
  %this.addr = alloca ptr, align 8
  store ptr %this, ptr %this.addr, align 8
  %this1 = load ptr, ptr %this.addr, align 8
  call void @_ZN6icu_757UObjectC2Ev(ptr noundef nonnull align 8 dereferenceable(8) %this1) #6
  store ptr getelementptr inbounds ({ [9 x ptr] }, ptr @_ZTVN6icu_7519CollationRuleParser4SinkE, i32 0, i32 0, i32 2), ptr %this1, align 8
  ret void
}

; Function Attrs: mustprogress uwtable
define void @_ZN6icu_7516CollationBuilderC2EPKNS_18CollationTailoringEaR10UErrorCode(ptr noundef nonnull align 8 dereferenceable(616) %this, ptr noundef %b, i8 noundef signext %icu4xMode, ptr noundef nonnull align 4 dereferenceable(4) %errorCode) unnamed_addr #0 align 2 personality ptr @__gxx_personality_v0 {
entry:
  %this.addr = alloca ptr, align 8
  %b.addr = alloca ptr, align 8
  %icu4xMode.addr = alloca i8, align 1
  %errorCode.addr = alloca ptr, align 8
  %exn.slot = alloca ptr, align 8
  %ehselector.slot = alloca i32, align 4
  %saved-rvalue = alloca ptr, align 8
  %cleanup.cond = alloca i1, align 1
  store ptr %this, ptr %this.addr, align 8
  store ptr %b, ptr %b.addr, align 8
  store i8 %icu4xMode, ptr %icu4xMode.addr, align 1
  store ptr %errorCode, ptr %errorCode.addr, align 8
  %this1 = load ptr, ptr %this.addr, align 8
  call void @_ZN6icu_7519CollationRuleParser4SinkC2Ev(ptr noundef nonnull align 8 dereferenceable(8) %this1) #6
  store ptr getelementptr inbounds ({ [9 x ptr] }, ptr @_ZTVN6icu_7516CollationBuilderE, i32 0, i32 0, i32 2), ptr %this1, align 8
  %nfd = getelementptr inbounds %"class.icu_75::CollationBuilder", ptr %this1, i32 0, i32 1
  %0 = load ptr, ptr %errorCode.addr, align 8
  %call = invoke noundef ptr @_ZN6icu_7511Normalizer214getNFDInstanceER10UErrorCode(ptr noundef nonnull align 4 dereferenceable(4) %0)
          to label %invoke.cont unwind label %lpad

invoke.cont:                                      ; preds = %entry
  store ptr %call, ptr %nfd, align 8
  %fcd = getelementptr inbounds %"class.icu_75::CollationBuilder", ptr %this1, i32 0, i32 2
  %1 = load ptr, ptr %errorCode.addr, align 8
  %call3 = invoke noundef ptr @_ZN6icu_7518Normalizer2Factory14getFCDInstanceER10UErrorCode(ptr noundef nonnull align 4 dereferenceable(4) %1)
          to label %invoke.cont2 unwind label %lpad

invoke.cont2:                                     ; preds = %invoke.cont
  store ptr %call3, ptr %fcd, align 8
  %nfcImpl = getelementptr inbounds %"class.icu_75::CollationBuilder", ptr %this1, i32 0, i32 3
  %2 = load ptr, ptr %errorCode.addr, align 8
  %call5 = invoke noundef ptr @_ZN6icu_7518Normalizer2Factory10getNFCImplER10UErrorCode(ptr noundef nonnull align 4 dereferenceable(4) %2)
          to label %invoke.cont4 unwind label %lpad

invoke.cont4:                                     ; preds = %invoke.cont2
  store ptr %call5, ptr %nfcImpl, align 8
  %base = getelementptr inbounds %"class.icu_75::CollationBuilder", ptr %this1, i32 0, i32 4
  %3 = load ptr, ptr %b.addr, align 8
  store ptr %3, ptr %base, align 8
  %baseData = getelementptr inbounds %"class.icu_75::CollationBuilder", ptr %this1, i32 0, i32 5
  %4 = load ptr, ptr %b.addr, align 8
  %data = getelementptr inbounds %"struct.icu_75::CollationTailoring", ptr %4, i32 0, i32 1
  %5 = load ptr, ptr %data, align 8
  store ptr %5, ptr %baseData, align 8
  %rootElements = getelementptr inbounds %"class.icu_75::CollationBuilder", ptr %this1, i32 0, i32 6
  %6 = load ptr, ptr %b.addr, align 8
  %data6 = getelementptr inbounds %"struct.icu_75::CollationTailoring", ptr %6, i32 0, i32 1
  %7 = load ptr, ptr %data6, align 8
  %rootElements7 = getelementptr inbounds %"struct.icu_75::CollationData", ptr %7, i32 0, i32 20
  %8 = load ptr, ptr %rootElements7, align 8
  %9 = load ptr, ptr %b.addr, align 8
  %data8 = getelementptr inbounds %"struct.icu_75::CollationTailoring", ptr %9, i32 0, i32 1
  %10 = load ptr, ptr %data8, align 8
  %rootElementsLength = getelementptr inbounds %"struct.icu_75::CollationData", ptr %10, i32 0, i32 21
  %11 = load i32, ptr %rootElementsLength, align 8
  invoke void @_ZN6icu_7521CollationRootElementsC2EPKji(ptr noundef nonnull align 8 dereferenceable(12) %rootElements, ptr noundef %8, i32 noundef %11)
          to label %invoke.cont9 unwind label %lpad

invoke.cont9:                                     ; preds = %invoke.cont4
  %variableTop = getelementptr inbounds %"class.icu_75::CollationBuilder", ptr %this1, i32 0, i32 7
  store i32 0, ptr %variableTop, align 8
  %dataBuilder = getelementptr inbounds %"class.icu_75::CollationBuilder", ptr %this1, i32 0, i32 8
  %call10 = call noundef ptr @_ZN6icu_757UMemorynwEm(i64 noundef 640) #6
  %new.isnull = icmp eq ptr %call10, null
  store i1 false, ptr %cleanup.cond, align 1
  br i1 %new.isnull, label %new.cont, label %new.notnull

new.notnull:                                      ; preds = %invoke.cont9
  store ptr %call10, ptr %saved-rvalue, align 8
  store i1 true, ptr %cleanup.cond, align 1
  %12 = load i8, ptr %icu4xMode.addr, align 1
  %13 = load ptr, ptr %errorCode.addr, align 8
  invoke void @_ZN6icu_7520CollationDataBuilderC1EaR10UErrorCode(ptr noundef nonnull align 8 dereferenceable(640) %call10, i8 noundef signext %12, ptr noundef nonnull align 4 dereferenceable(4) %13)
          to label %invoke.cont12 unwind label %lpad11

invoke.cont12:                                    ; preds = %new.notnull
  br label %new.cont

new.cont:                                         ; preds = %invoke.cont12, %invoke.cont9
  %14 = phi ptr [ %call10, %invoke.cont12 ], [ null, %invoke.cont9 ]
  store ptr %14, ptr %dataBuilder, align 8
  %fastLatinEnabled = getelementptr inbounds %"class.icu_75::CollationBuilder", ptr %this1, i32 0, i32 9
  store i8 1, ptr %fastLatinEnabled, align 8
  %icu4xMode13 = getelementptr inbounds %"class.icu_75::CollationBuilder", ptr %this1, i32 0, i32 10
  %15 = load i8, ptr %icu4xMode.addr, align 1
  store i8 %15, ptr %icu4xMode13, align 1
  %optimizeSet = getelementptr inbounds %"class.icu_75::CollationBuilder", ptr %this1, i32 0, i32 12
  invoke void @_ZN6icu_7510UnicodeSetC1Ev(ptr noundef nonnull align 8 dereferenceable(200) %optimizeSet)
          to label %invoke.cont14 unwind label %lpad

invoke.cont14:                                    ; preds = %new.cont
  %errorReason = getelementptr inbounds %"class.icu_75::CollationBuilder", ptr %this1, i32 0, i32 13
  store ptr null, ptr %errorReason, align 8
  %cesLength = getelementptr inbounds %"class.icu_75::CollationBuilder", ptr %this1, i32 0, i32 15
  store i32 0, ptr %cesLength, align 8
  %rootPrimaryIndexes = getelementptr inbounds %"class.icu_75::CollationBuilder", ptr %this1, i32 0, i32 16
  %16 = load ptr, ptr %errorCode.addr, align 8
  invoke void @_ZN6icu_759UVector32C1ER10UErrorCode(ptr noundef nonnull align 8 dereferenceable(32) %rootPrimaryIndexes, ptr noundef nonnull align 4 dereferenceable(4) %16)
          to label %invoke.cont16 unwind label %lpad15

invoke.cont16:                                    ; preds = %invoke.cont14
  %nodes = getelementptr inbounds %"class.icu_75::CollationBuilder", ptr %this1, i32 0, i32 17
  %17 = load ptr, ptr %errorCode.addr, align 8
  invoke void @_ZN6icu_759UVector64C1ER10UErrorCode(ptr noundef nonnull align 8 dereferenceable(32) %nodes, ptr noundef nonnull align 4 dereferenceable(4) %17)
          to label %invoke.cont18 unwind label %lpad17

invoke.cont18:                                    ; preds = %invoke.cont16
  %nfcImpl19 = getelementptr inbounds %"class.icu_75::CollationBuilder", ptr %this1, i32 0, i32 3
  %18 = load ptr, ptr %nfcImpl19, align 8
  %19 = load ptr, ptr %errorCode.addr, align 8
  %call22 = invoke noundef signext i8 @_ZNK6icu_7515Normalizer2Impl19ensureCanonIterDataER10UErrorCode(ptr noundef nonnull align 8 dereferenceable(80) %18, ptr noundef nonnull align 4 dereferenceable(4) %19)
          to label %invoke.cont21 unwind label %lpad20

invoke.cont21:                                    ; preds = %invoke.cont18
  %20 = load ptr, ptr %errorCode.addr, align 8
  %21 = load i32, ptr %20, align 4
  %call24 = invoke noundef signext i8 @_ZL9U_FAILURE10UErrorCode(i32 noundef %21)
          to label %invoke.cont23 unwind label %lpad20

invoke.cont23:                                    ; preds = %invoke.cont21
  %tobool = icmp ne i8 %call24, 0
  br i1 %tobool, label %if.then, label %if.end

if.then:                                          ; preds = %invoke.cont23
  %errorReason25 = getelementptr inbounds %"class.icu_75::CollationBuilder", ptr %this1, i32 0, i32 13
  store ptr @.str.1, ptr %errorReason25, align 8
  br label %if.end37

lpad:                                             ; preds = %new.cont, %invoke.cont4, %invoke.cont2, %invoke.cont, %entry
  %22 = landingpad { ptr, i32 }
          cleanup
  %23 = extractvalue { ptr, i32 } %22, 0
  store ptr %23, ptr %exn.slot, align 8
  %24 = extractvalue { ptr, i32 } %22, 1
  store i32 %24, ptr %ehselector.slot, align 4
  br label %ehcleanup39

lpad11:                                           ; preds = %new.notnull
  %25 = landingpad { ptr, i32 }
          cleanup
  %26 = extractvalue { ptr, i32 } %25, 0
  store ptr %26, ptr %exn.slot, align 8
  %27 = extractvalue { ptr, i32 } %25, 1
  store i32 %27, ptr %ehselector.slot, align 4
  %cleanup.is_active = load i1, ptr %cleanup.cond, align 1
  br i1 %cleanup.is_active, label %cleanup.action, label %cleanup.done

cleanup.action:                                   ; preds = %lpad11
  %28 = load ptr, ptr %saved-rvalue, align 8
  call void @_ZN6icu_757UMemorydlEPv(ptr noundef %28) #6
  br label %cleanup.done

cleanup.done:                                     ; preds = %cleanup.action, %lpad11
  br label %ehcleanup39

lpad15:                                           ; preds = %invoke.cont14
  %29 = landingpad { ptr, i32 }
          cleanup
  %30 = extractvalue { ptr, i32 } %29, 0
  store ptr %30, ptr %exn.slot, align 8
  %31 = extractvalue { ptr, i32 } %29, 1
  store i32 %31, ptr %ehselector.slot, align 4
  br label %ehcleanup38

lpad17:                                           ; preds = %invoke.cont16
  %32 = landingpad { ptr, i32 }
          cleanup
  %33 = extractvalue { ptr, i32 } %32, 0
  store ptr %33, ptr %exn.slot, align 8
  %34 = extractvalue { ptr, i32 } %32, 1
  store i32 %34, ptr %ehselector.slot, align 4
  br label %ehcleanup

lpad20:                                           ; preds = %invoke.cont31, %if.end28, %invoke.cont21, %invoke.cont18
  %35 = landingpad { ptr, i32 }
          cleanup
  %36 = extractvalue { ptr, i32 } %35, 0
  store ptr %36, ptr %exn.slot, align 8
  %37 = extractvalue { ptr, i32 } %35, 1
  store i32 %37, ptr %ehselector.slot, align 4
  call void @_ZN6icu_759UVector64D1Ev(ptr noundef nonnull align 8 dereferenceable(32) %nodes) #6
  br label %ehcleanup

if.end:                                           ; preds = %invoke.cont23
  %dataBuilder26 = getelementptr inbounds %"class.icu_75::CollationBuilder", ptr %this1, i32 0, i32 8
  %38 = load ptr, ptr %dataBuilder26, align 8
  %cmp = icmp eq ptr %38, null
  br i1 %cmp, label %if.then27, label %if.end28

if.then27:                                        ; preds = %if.end
  %39 = load ptr, ptr %errorCode.addr, align 8
  store i32 7, ptr %39, align 4
  br label %if.end37

if.end28:                                         ; preds = %if.end
  %dataBuilder29 = getelementptr inbounds %"class.icu_75::CollationBuilder", ptr %this1, i32 0, i32 8
  %40 = load ptr, ptr %dataBuilder29, align 8
  %baseData30 = getelementptr inbounds %"class.icu_75::CollationBuilder", ptr %this1, i32 0, i32 5
  %41 = load ptr, ptr %baseData30, align 8
  %42 = load ptr, ptr %errorCode.addr, align 8
  invoke void @_ZN6icu_7520CollationDataBuilder16initForTailoringEPKNS_13CollationDataER10UErrorCode(ptr noundef nonnull align 8 dereferenceable(640) %40, ptr noundef %41, ptr noundef nonnull align 4 dereferenceable(4) %42)
          to label %invoke.cont31 unwind label %lpad20

invoke.cont31:                                    ; preds = %if.end28
  %43 = load ptr, ptr %errorCode.addr, align 8
  %44 = load i32, ptr %43, align 4
  %call33 = invoke noundef signext i8 @_ZL9U_FAILURE10UErrorCode(i32 noundef %44)
          to label %invoke.cont32 unwind label %lpad20

invoke.cont32:                                    ; preds = %invoke.cont31
  %tobool34 = icmp ne i8 %call33, 0
  br i1 %tobool34, label %if.then35, label %if.end37

if.then35:                                        ; preds = %invoke.cont32
  %errorReason36 = getelementptr inbounds %"class.icu_75::CollationBuilder", ptr %this1, i32 0, i32 13
  store ptr @.str.2, ptr %errorReason36, align 8
  br label %if.end37

if.end37:                                         ; preds = %if.then35, %invoke.cont32, %if.then27, %if.then
  ret void

ehcleanup:                                        ; preds = %lpad20, %lpad17
  call void @_ZN6icu_759UVector32D1Ev(ptr noundef nonnull align 8 dereferenceable(32) %rootPrimaryIndexes) #6
  br label %ehcleanup38

ehcleanup38:                                      ; preds = %ehcleanup, %lpad15
  call void @_ZN6icu_7510UnicodeSetD1Ev(ptr noundef nonnull align 8 dereferenceable(200) %optimizeSet) #6
  br label %ehcleanup39

ehcleanup39:                                      ; preds = %ehcleanup38, %cleanup.done, %lpad
  call void @_ZN6icu_7519CollationRuleParser4SinkD2Ev(ptr noundef nonnull align 8 dereferenceable(8) %this1) #6
  br label %eh.resume

eh.resume:                                        ; preds = %ehcleanup39
  %exn = load ptr, ptr %exn.slot, align 8
  %sel = load i32, ptr %ehselector.slot, align 4
  %lpad.val = insertvalue { ptr, i32 } poison, ptr %exn, 0
  %lpad.val40 = insertvalue { ptr, i32 } %lpad.val, i32 %sel, 1
  resume { ptr, i32 } %lpad.val40
}