; Function Attrs: mustprogress uwtable
define void @_ZN6icu_7516CollationBuilderC2EPKNS_18CollationTailoringEaR10UErrorCode(ptr noundef nonnull align 8 dereferenceable(616) %this, ptr noundef %b, i8 noundef signext %icu4xMode, ptr noundef nonnull align 4 dereferenceable(4) %errorCode) unnamed_addr #0 align 2 personality ptr @__gxx_personality_v0 {
entry:
  store ptr getelementptr inbounds ({ [9 x ptr] }, ptr @_ZTVN6icu_7516CollationBuilderE, i64 0, i32 0, i64 2), ptr %this, align 8
  %call = invoke noundef ptr @_ZN6icu_7511Normalizer214getNFDInstanceER10UErrorCode(ptr noundef nonnull align 4 dereferenceable(4) %errorCode)
          to label %invoke.cont unwind label %lpad

invoke.cont:                                      ; preds = %entry
  %nfd = getelementptr inbounds i8, ptr %this, i64 8
  store ptr %call, ptr %nfd, align 8
  %call3 = invoke noundef ptr @_ZN6icu_7518Normalizer2Factory14getFCDInstanceER10UErrorCode(ptr noundef nonnull align 4 dereferenceable(4) %errorCode)
          to label %invoke.cont2 unwind label %lpad

invoke.cont2:                                     ; preds = %invoke.cont
  %fcd = getelementptr inbounds i8, ptr %this, i64 16
  store ptr %call3, ptr %fcd, align 8
  %nfcImpl = getelementptr inbounds i8, ptr %this, i64 24
  %call5 = invoke noundef ptr @_ZN6icu_7518Normalizer2Factory10getNFCImplER10UErrorCode(ptr noundef nonnull align 4 dereferenceable(4) %errorCode)
          to label %invoke.cont4 unwind label %lpad

invoke.cont4:                                     ; preds = %invoke.cont2
  store ptr %call5, ptr %nfcImpl, align 8
  %base = getelementptr inbounds i8, ptr %this, i64 32
  store ptr %b, ptr %base, align 8
  %baseData = getelementptr inbounds i8, ptr %this, i64 40
  %data = getelementptr inbounds i8, ptr %b, i64 24
  %0 = load ptr, ptr %data, align 8
  store ptr %0, ptr %baseData, align 8
  %rootElements = getelementptr inbounds i8, ptr %this, i64 48
  %rootElements7 = getelementptr inbounds i8, ptr %0, i64 128
  %1 = load ptr, ptr %rootElements7, align 8
  %rootElementsLength = getelementptr inbounds i8, ptr %0, i64 136
  %2 = load i32, ptr %rootElementsLength, align 8
  store ptr %1, ptr %rootElements, align 8
  %length.i = getelementptr inbounds i8, ptr %this, i64 56
  store i32 %2, ptr %length.i, align 8
  %variableTop = getelementptr inbounds i8, ptr %this, i64 64
  store i32 0, ptr %variableTop, align 8
  %dataBuilder = getelementptr inbounds i8, ptr %this, i64 72
  %call10 = tail call noundef ptr @_ZN6icu_757UMemorynwEm(i64 noundef 640) #12
  %new.isnull = icmp eq ptr %call10, null
  br i1 %new.isnull, label %new.cont, label %new.notnull

new.notnull:                                      ; preds = %invoke.cont4
  invoke void @_ZN6icu_7520CollationDataBuilderC1EaR10UErrorCode(ptr noundef nonnull align 8 dereferenceable(640) %call10, i8 noundef signext %icu4xMode, ptr noundef nonnull align 4 dereferenceable(4) %errorCode)
          to label %new.cont unwind label %lpad11

new.cont:                                         ; preds = %new.notnull, %invoke.cont4
  store ptr %call10, ptr %dataBuilder, align 8
  %fastLatinEnabled = getelementptr inbounds i8, ptr %this, i64 80
  store i8 1, ptr %fastLatinEnabled, align 8
  %icu4xMode13 = getelementptr inbounds i8, ptr %this, i64 81
  store i8 %icu4xMode, ptr %icu4xMode13, align 1
  %optimizeSet = getelementptr inbounds i8, ptr %this, i64 88
  invoke void @_ZN6icu_7510UnicodeSetC1Ev(ptr noundef nonnull align 8 dereferenceable(200) %optimizeSet)
          to label %invoke.cont14 unwind label %lpad

invoke.cont14:                                    ; preds = %new.cont
  %errorReason = getelementptr inbounds i8, ptr %this, i64 288
  store ptr null, ptr %errorReason, align 8
  %cesLength = getelementptr inbounds i8, ptr %this, i64 544
  store i32 0, ptr %cesLength, align 8
  %rootPrimaryIndexes = getelementptr inbounds i8, ptr %this, i64 552
  invoke void @_ZN6icu_759UVector32C1ER10UErrorCode(ptr noundef nonnull align 8 dereferenceable(32) %rootPrimaryIndexes, ptr noundef nonnull align 4 dereferenceable(4) %errorCode)
          to label %invoke.cont16 unwind label %lpad15

invoke.cont16:                                    ; preds = %invoke.cont14
  %nodes = getelementptr inbounds i8, ptr %this, i64 584
  invoke void @_ZN6icu_759UVector64C1ER10UErrorCode(ptr noundef nonnull align 8 dereferenceable(32) %nodes, ptr noundef nonnull align 4 dereferenceable(4) %errorCode)
          to label %invoke.cont18 unwind label %lpad17

invoke.cont18:                                    ; preds = %invoke.cont16
  %3 = load ptr, ptr %nfcImpl, align 8
  %call22 = invoke noundef signext i8 @_ZNK6icu_7515Normalizer2Impl19ensureCanonIterDataER10UErrorCode(ptr noundef nonnull align 8 dereferenceable(80) %3, ptr noundef nonnull align 4 dereferenceable(4) %errorCode)
          to label %invoke.cont21 unwind label %lpad20

invoke.cont21:                                    ; preds = %invoke.cont18
  %4 = load i32, ptr %errorCode, align 4
  %cmp.i = icmp slt i32 %4, 1
  br i1 %cmp.i, label %if.end, label %if.then

if.then:                                          ; preds = %invoke.cont21
  store ptr @.str.1, ptr %errorReason, align 8
  br label %if.end37

lpad:                                             ; preds = %new.cont, %invoke.cont2, %invoke.cont, %entry
  %5 = landingpad { ptr, i32 }
          cleanup
  br label %ehcleanup39

lpad11:                                           ; preds = %new.notnull
  %6 = landingpad { ptr, i32 }
          cleanup
  tail call void @_ZN6icu_757UMemorydlEPv(ptr noundef nonnull %call10) #12
  br label %ehcleanup39

lpad15:                                           ; preds = %invoke.cont14
  %7 = landingpad { ptr, i32 }
          cleanup
  br label %ehcleanup38

lpad17:                                           ; preds = %invoke.cont16
  %8 = landingpad { ptr, i32 }
          cleanup
  br label %ehcleanup

lpad20:                                           ; preds = %if.end28, %invoke.cont18
  %9 = landingpad { ptr, i32 }
          cleanup
  tail call void @_ZN6icu_759UVector64D1Ev(ptr noundef nonnull align 8 dereferenceable(32) %nodes) #12
  br label %ehcleanup

if.end:                                           ; preds = %invoke.cont21
  %10 = load ptr, ptr %dataBuilder, align 8
  %cmp = icmp eq ptr %10, null
  br i1 %cmp, label %if.then27, label %if.end28

if.then27:                                        ; preds = %if.end
  store i32 7, ptr %errorCode, align 4
  br label %if.end37

if.end28:                                         ; preds = %if.end
  %11 = load ptr, ptr %baseData, align 8
  invoke void @_ZN6icu_7520CollationDataBuilder16initForTailoringEPKNS_13CollationDataER10UErrorCode(ptr noundef nonnull align 8 dereferenceable(640) %10, ptr noundef %11, ptr noundef nonnull align 4 dereferenceable(4) %errorCode)
          to label %invoke.cont31 unwind label %lpad20

invoke.cont31:                                    ; preds = %if.end28
  %12 = load i32, ptr %errorCode, align 4
  %cmp.i18 = icmp slt i32 %12, 1
  br i1 %cmp.i18, label %if.end37, label %if.then35

if.then35:                                        ; preds = %invoke.cont31
  store ptr @.str.2, ptr %errorReason, align 8
  br label %if.end37

if.end37:                                         ; preds = %if.then35, %invoke.cont31, %if.then27, %if.then
  ret void

ehcleanup:                                        ; preds = %lpad20, %lpad17
  %.pn = phi { ptr, i32 } [ %9, %lpad20 ], [ %8, %lpad17 ]
  tail call void @_ZN6icu_759UVector32D1Ev(ptr noundef nonnull align 8 dereferenceable(32) %rootPrimaryIndexes) #12
  br label %ehcleanup38

ehcleanup38:                                      ; preds = %ehcleanup, %lpad15
  %.pn.pn = phi { ptr, i32 } [ %.pn, %ehcleanup ], [ %7, %lpad15 ]
  tail call void @_ZN6icu_7510UnicodeSetD1Ev(ptr noundef nonnull align 8 dereferenceable(200) %optimizeSet) #12
  br label %ehcleanup39

ehcleanup39:                                      ; preds = %lpad11, %ehcleanup38, %lpad
  %.pn.pn.pn = phi { ptr, i32 } [ %.pn.pn, %ehcleanup38 ], [ %5, %lpad ], [ %6, %lpad11 ]
  tail call void @_ZN6icu_7519CollationRuleParser4SinkD2Ev(ptr noundef nonnull align 8 dereferenceable(8) %this) #12
  resume { ptr, i32 } %.pn.pn.pn
}